target datalayout = "e-m:e-p270:32:32-p271:32:32-p272:64:64-i64:64-i128:128-f80:128-n8:16:32:64-S128"
target triple = "x86_64-unknown-linux-gnu"

%"class.folly::Range" = type { ptr, ptr }
%"class.folly::basic_fbstring" = type { %"class.folly::fbstring_core" }
%"class.folly::fbstring_core" = type { %union.anon }
%union.anon = type { %"struct.folly::fbstring_core<char>::MediumLarge" }
%"struct.folly::fbstring_core<char>::MediumLarge" = type { ptr, i64, i64 }
%"class.folly::Optional" = type { %"struct.folly::Optional<unsigned int>::StorageTriviallyDestructible" }
%"struct.folly::Optional<unsigned int>::StorageTriviallyDestructible" = type <{ %union.anon.11, i8, [3 x i8] }>
%union.anon.11 = type { i32 }
%"class.std::exception" = type { ptr }
%"struct.std::__cow_string" = type { %union.anon.23 }
%union.anon.23 = type { ptr }
%"class.folly::OptionalEmptyException" = type { %"class.std::runtime_error" }
%"class.std::runtime_error" = type { %"class.std::exception", %"struct.std::__cow_string" }

@_ZTIN5folly22OptionalEmptyExceptionE = linkonce_odr constant { ptr, ptr, ptr } { ptr getelementptr inbounds (ptr, ptr @_ZTVN10__cxxabiv120__si_class_type_infoE, i64 2), ptr @_ZTSN5folly22OptionalEmptyExceptionE, ptr @_ZTISt13runtime_error }, comdat, align 8
@_ZTVN5folly22OptionalEmptyExceptionE = linkonce_odr unnamed_addr constant { [5 x ptr] } { [5 x ptr] [ptr null, ptr @_ZTIN5folly22OptionalEmptyExceptionE, ptr @_ZN5folly22OptionalEmptyExceptionD2Ev, ptr @_ZN5folly22OptionalEmptyExceptionD0Ev, ptr @_ZNKSt13runtime_error4whatEv] }, comdat, align 8
@.str.30 = private unnamed_addr constant [35 x i8] c"Empty Optional cannot be unwrapped\00", align 1

; Function Attrs: mustprogress nounwind uwtable
define linkonce_odr void @_ZN5folly22OptionalEmptyExceptionC2EOS0_(ptr noundef nonnull align 8 dereferenceable(16) %this, ptr noundef nonnull align 8 dereferenceable(16) %0) unnamed_addr #5 comdat align 2 {
entry:
  %this.addr = alloca ptr, align 8
  %.addr = alloca ptr, align 8
  store ptr %this, ptr %this.addr, align 8
  store ptr %0, ptr %.addr, align 8
  %this1 = load ptr, ptr %this.addr, align 8
  %1 = load ptr, ptr %.addr, align 8
  call void @_ZNSt13runtime_errorC2EOS_(ptr noundef nonnull align 8 dereferenceable(16) %this1, ptr noundef nonnull align 8 dereferenceable(16) %1) #3
  store ptr getelementptr inbounds ({ [5 x ptr] }, ptr @_ZTVN5folly22OptionalEmptyExceptionE, i32 0, i32 0, i32 2), ptr %this1, align 8
  ret void
}

; Function Attrs: mustprogress nounwind uwtable
define linkonce_odr void @_ZN5folly22OptionalEmptyExceptionD2Ev(ptr noundef nonnull align 8 dereferenceable(16) %this) unnamed_addr #5 comdat align 2 {
entry:
  %this.addr = alloca ptr, align 8
  store ptr %this, ptr %this.addr, align 8
  %this1 = load ptr, ptr %this.addr, align 8
  call void @_ZNSt13runtime_errorD2Ev(ptr noundef nonnull align 8 dereferenceable(16) %this1) #3
  ret void
}

; Function Attrs: cold mustprogress noreturn uwtable
define linkonce_odr void @_ZN5folly15throw_exceptionINS_22OptionalEmptyExceptionEEEvOT_(ptr noundef nonnull align 8 dereferenceable(16) %ex) #15 comdat {
entry:
  %ex.addr = alloca ptr, align 8
  store ptr %ex, ptr %ex.addr, align 8
  %exception = call ptr @__cxa_allocate_exception(i64 16) #3
  %0 = load ptr, ptr %ex.addr, align 8
  call void @_ZN5folly22OptionalEmptyExceptionC2EOS0_(ptr noundef nonnull align 8 dereferenceable(16) %exception, ptr noundef nonnull align 8 dereferenceable(16) %0) #3
  call void @__cxa_throw(ptr %exception, ptr @_ZTIN5folly22OptionalEmptyExceptionE, ptr @_ZN5folly22OptionalEmptyExceptionD2Ev) #24
  unreachable
}

; Function Attrs: mustprogress uwtable
define linkonce_odr void @_ZN5folly22OptionalEmptyExceptionC2Ev(ptr noundef nonnull align 8 dereferenceable(16) %this) unnamed_addr #4 comdat align 2 {
entry:
  %this.addr = alloca ptr, align 8
  store ptr %this, ptr %this.addr, align 8
  %this1 = load ptr, ptr %this.addr, align 8
  call void @_ZNSt13runtime_errorC2EPKc(ptr noundef nonnull align 8 dereferenceable(16) %this1, ptr noundef @.str.30)
  store ptr getelementptr inbounds ({ [5 x ptr] }, ptr @_ZTVN5folly22OptionalEmptyExceptionE, i32 0, i32 0, i32 2), ptr %this1, align 8
  ret void
}

; Function Attrs: mustprogress nounwind uwtable
define linkonce_odr noundef zeroext i8 @_ZNK5folly13fbstring_coreIcE8categoryEv(ptr noundef nonnull align 8 dereferenceable(24) %this) #5 comdat align 2 {
entry:
  %this.addr = alloca ptr, align 8
  store ptr %this, ptr %this.addr, align 8
  %this1 = load ptr, ptr %this.addr, align 8
  %0 = getelementptr inbounds %"class.folly::fbstring_core", ptr %this1, i32 0, i32 0
  %arrayidx = getelementptr inbounds [24 x i8], ptr %0, i64 0, i64 23
  %1 = load i8, ptr %arrayidx, align 1
  %conv = zext i8 %1 to i32
  %and = and i32 %conv, 192
  %conv2 = trunc i32 %and to i8
  ret i8 %conv2
}

; Function Attrs: cold mustprogress noreturn uwtable
define linkonce_odr void @_ZN5folly6detail16throw_exception_INS_22OptionalEmptyExceptionEJEEEvDpT0_() #15 comdat personality ptr @__gxx_personality_v0 {
entry:
  %ref.tmp = alloca %"class.folly::OptionalEmptyException", align 8
  %exn.slot = alloca ptr, align 8
  %ehselector.slot = alloca i32, align 4
  call void @_ZN5folly22OptionalEmptyExceptionC2Ev(ptr noundef nonnull align 8 dereferenceable(16) %ref.tmp)
  invoke void @_ZN5folly15throw_exceptionINS_22OptionalEmptyExceptionEEEvOT_(ptr noundef nonnull align 8 dereferenceable(16) %ref.tmp) #23
          to label %invoke.cont unwind label %lpad

invoke.cont:                                      ; preds = %entry
  unreachable

lpad:                                             ; preds = %entry
  %0 = landingpad { ptr, i32 }
          cleanup
  %1 = extractvalue { ptr, i32 } %0, 0
  store ptr %1, ptr %exn.slot, align 8
  %2 = extractvalue { ptr, i32 } %0, 1
  store i32 %2, ptr %ehselector.slot, align 4
  call void @_ZN5folly22OptionalEmptyExceptionD2Ev(ptr noundef nonnull align 8 dereferenceable(16) %ref.tmp) #3
  br label %eh.resume

eh.resume:                                        ; preds = %lpad
  %exn = load ptr, ptr %exn.slot, align 8
  %sel = load i32, ptr %ehselector.slot, align 4
  %lpad.val = insertvalue { ptr, i32 } poison, ptr %exn, 0
  %lpad.val1 = insertvalue { ptr, i32 } %lpad.val, i32 %sel, 1
  resume { ptr, i32 } %lpad.val1
}

; Function Attrs: mustprogress uwtable
define linkonce_odr noundef ptr @_ZNK5folly13fbstring_coreIcE5c_strEv(ptr noundef nonnull align 8 dereferenceable(24) %this) #4 comdat align 2 {
entry:
  %this.addr = alloca ptr, align 8
  %ptr = alloca ptr, align 8
  store ptr %this, ptr %this.addr, align 8
  %this1 = load ptr, ptr %this.addr, align 8
  %0 = getelementptr inbounds %"class.folly::fbstring_core", ptr %this1, i32 0, i32 0
  %data_ = getelementptr inbounds %"struct.folly::fbstring_core<char>::MediumLarge", ptr %0, i32 0, i32 0
  %1 = load ptr, ptr %data_, align 8
  store ptr %1, ptr %ptr, align 8
  %call = call noundef zeroext i8 @_ZNK5folly13fbstring_coreIcE8categoryEv(ptr noundef nonnull align 8 dereferenceable(24) %this1)
  %cmp = icmp eq i8 %call, 0
  br i1 %cmp, label %cond.true, label %cond.false

cond.true:                                        ; preds = %entry
  %2 = getelementptr inbounds %"class.folly::fbstring_core", ptr %this1, i32 0, i32 0
  %arraydecay = getelementptr inbounds [24 x i8], ptr %2, i64 0, i64 0
  br label %cond.end

cond.false:                                       ; preds = %entry
  %3 = load ptr, ptr %ptr, align 8
  br label %cond.end

cond.end:                                         ; preds = %cond.false, %cond.true
  %cond = phi ptr [ %arraydecay, %cond.true ], [ %3, %cond.false ]
  store ptr %cond, ptr %ptr, align 8
  %4 = load ptr, ptr %ptr, align 8
  ret ptr %4
}

; Function Attrs: mustprogress uwtable
define linkonce_odr void @_ZNK5folly8OptionalIjE13require_valueEv(ptr noundef nonnull align 4 dereferenceable(8) %this) #4 comdat align 2 {
entry:
  %this.addr = alloca ptr, align 8
  store ptr %this, ptr %this.addr, align 8
  %this1 = load ptr, ptr %this.addr, align 8
  %storage_ = getelementptr inbounds %"class.folly::Optional", ptr %this1, i32 0, i32 0
  %hasValue = getelementptr inbounds %"struct.folly::Optional<unsigned int>::StorageTriviallyDestructible", ptr %storage_, i32 0, i32 1
  %0 = load i8, ptr %hasValue, align 4
  %tobool = trunc i8 %0 to i1
  br i1 %tobool, label %if.end, label %if.then

if.then:                                          ; preds = %entry
  call void @_ZN5folly6detail16throw_exception_INS_22OptionalEmptyExceptionEJEEEvDpT0_() #23
  unreachable

_ZN5folly15throw_exceptionINS_22OptionalEmptyExceptionEJEEEvDpOT0_.exit: ; No predecessors!
  unreachable

if.end:                                           ; preds = %entry
  ret void
}

; Function Attrs: mustprogress nounwind uwtable
define linkonce_odr noundef i64 @_ZNK5folly13fbstring_coreIcE4sizeEv(ptr noundef nonnull align 8 dereferenceable(24) %this) #5 comdat align 2 {
entry:
  %this.addr = alloca ptr, align 8
  %ret = alloca i64, align 8
  %maybeSmallSize = alloca i64, align 8
  store ptr %this, ptr %this.addr, align 8
  %this1 = load ptr, ptr %this.addr, align 8
  %0 = getelementptr inbounds %"class.folly::fbstring_core", ptr %this1, i32 0, i32 0
  %size_ = getelementptr inbounds %"struct.folly::fbstring_core<char>::MediumLarge", ptr %0, i32 0, i32 1
  %1 = load i64, ptr %size_, align 8
  store i64 %1, ptr %ret, align 8
  %2 = getelementptr inbounds %"class.folly::fbstring_core", ptr %this1, i32 0, i32 0
  %arrayidx = getelementptr inbounds [24 x i8], ptr %2, i64 0, i64 23
  %3 = load i8, ptr %arrayidx, align 1
  %conv = zext i8 %3 to i64
  %sub = sub i64 23, %conv
  store i64 %sub, ptr %maybeSmallSize, align 8
  %4 = load i64, ptr %maybeSmallSize, align 8
  %cmp = icmp sge i64 %4, 0
  br i1 %cmp, label %cond.true, label %cond.false

cond.true:                                        ; preds = %entry
  %5 = load i64, ptr %maybeSmallSize, align 8
  br label %cond.end

cond.false:                                       ; preds = %entry
  %6 = load i64, ptr %ret, align 8
  br label %cond.end

cond.end:                                         ; preds = %cond.false, %cond.true
  %cond = phi i64 [ %5, %cond.true ], [ %6, %cond.false ]
  store i64 %cond, ptr %ret, align 8
  %7 = load i64, ptr %ret, align 8
  ret i64 %7
}

; Function Attrs: mustprogress uwtable
define linkonce_odr noundef ptr @_ZNK5folly14basic_fbstringIcSt11char_traitsIcESaIcENS_13fbstring_coreIcEEE5c_strEv(ptr noundef nonnull align 8 dereferenceable(24) %this) #4 comdat align 2 {
entry:
  %this.addr = alloca ptr, align 8
  store ptr %this, ptr %this.addr, align 8
  %this1 = load ptr, ptr %this.addr, align 8
  %store_ = getelementptr inbounds %"class.folly::basic_fbstring", ptr %this1, i32 0, i32 0
  %call = call noundef ptr @_ZNK5folly13fbstring_coreIcE5c_strEv(ptr noundef nonnull align 8 dereferenceable(24) %store_)
  ret ptr %call
}

; Function Attrs: mustprogress uwtable
define linkonce_odr noundef nonnull align 4 dereferenceable(4) ptr @_ZNR5folly8OptionalIjE5valueEv(ptr noundef nonnull align 4 dereferenceable(8) %this) #4 comdat align 2 {
entry:
  %this.addr = alloca ptr, align 8
  store ptr %this, ptr %this.addr, align 8
  %this1 = load ptr, ptr %this.addr, align 8
  call void @_ZNK5folly8OptionalIjE13require_valueEv(ptr noundef nonnull align 4 dereferenceable(8) %this1)
  %storage_ = getelementptr inbounds %"class.folly::Optional", ptr %this1, i32 0, i32 0
  %0 = getelementptr inbounds %"struct.folly::Optional<unsigned int>::StorageTriviallyDestructible", ptr %storage_, i32 0, i32 0
  ret ptr %0
}

; Function Attrs: mustprogress nounwind uwtable
define linkonce_odr noundef zeroext i1 @_ZNK5folly8OptionalIjE9has_valueEv(ptr noundef nonnull align 4 dereferenceable(8) %this) #5 comdat align 2 {
entry:
  %this.addr = alloca ptr, align 8
  store ptr %this, ptr %this.addr, align 8
  %this1 = load ptr, ptr %this.addr, align 8
  %storage_ = getelementptr inbounds %"class.folly::Optional", ptr %this1, i32 0, i32 0
  %hasValue = getelementptr inbounds %"struct.folly::Optional<unsigned int>::StorageTriviallyDestructible", ptr %storage_, i32 0, i32 1
  %0 = load i8, ptr %hasValue, align 4
  %tobool = trunc i8 %0 to i1
  ret i1 %tobool
}

; Function Attrs: mustprogress nounwind uwtable
define linkonce_odr void @_ZN5folly5RangeIPKcEC2ES2_m(ptr noundef nonnull align 8 dereferenceable(16) %this, ptr noundef %start, i64 noundef %size) unnamed_addr #5 comdat align 2 {
entry:
  %this.addr = alloca ptr, align 8
  %start.addr = alloca ptr, align 8
  %size.addr = alloca i64, align 8
  store ptr %this, ptr %this.addr, align 8
  store ptr %start, ptr %start.addr, align 8
  store i64 %size, ptr %size.addr, align 8
  %this1 = load ptr, ptr %this.addr, align 8
  %b_ = getelementptr inbounds %"class.folly::Range", ptr %this1, i32 0, i32 0
  %0 = load ptr, ptr %start.addr, align 8
  store ptr %0, ptr %b_, align 8
  %e_ = getelementptr inbounds %"class.folly::Range", ptr %this1, i32 0, i32 1
  %1 = load ptr, ptr %start.addr, align 8
  %2 = load i64, ptr %size.addr, align 8
  %add.ptr = getelementptr inbounds i8, ptr %1, i64 %2
  store ptr %add.ptr, ptr %e_, align 8
  ret void
}

; Function Attrs: mustprogress uwtable
define linkonce_odr noundef i64 @_ZNK5folly14basic_fbstringIcSt11char_traitsIcESaIcENS_13fbstring_coreIcEEE4sizeEv(ptr noundef nonnull align 8 dereferenceable(24) %this) #4 comdat align 2 {
entry:
  %this.addr = alloca ptr, align 8
  store ptr %this, ptr %this.addr, align 8
  %this1 = load ptr, ptr %this.addr, align 8
  %store_ = getelementptr inbounds %"class.folly::basic_fbstring", ptr %this1, i32 0, i32 0
  %call = call noundef i64 @_ZNK5folly13fbstring_coreIcE4sizeEv(ptr noundef nonnull align 8 dereferenceable(24) %store_)
  ret i64 %call
}

; Function Attrs: mustprogress uwtable
define linkonce_odr noundef ptr @_ZNK5folly14basic_fbstringIcSt11char_traitsIcESaIcENS_13fbstring_coreIcEEE4dataEv(ptr noundef nonnull align 8 dereferenceable(24) %this) #4 comdat align 2 {
entry:
  %this.addr = alloca ptr, align 8
  store ptr %this, ptr %this.addr, align 8
  %this1 = load ptr, ptr %this.addr, align 8
  %call = call noundef ptr @_ZNK5folly14basic_fbstringIcSt11char_traitsIcESaIcENS_13fbstring_coreIcEEE5c_strEv(ptr noundef nonnull align 8 dereferenceable(24) %this1)
  ret ptr %call
}

; Function Attrs: mustprogress uwtable
define linkonce_odr noundef nonnull align 4 dereferenceable(4) ptr @_ZNR5folly8OptionalIjEdeEv(ptr noundef nonnull align 4 dereferenceable(8) %this) #4 comdat align 2 {
entry:
  %this.addr = alloca ptr, align 8
  store ptr %this, ptr %this.addr, align 8
  %this1 = load ptr, ptr %this.addr, align 8
  %call = call noundef nonnull align 4 dereferenceable(4) ptr @_ZNR5folly8OptionalIjE5valueEv(ptr noundef nonnull align 4 dereferenceable(8) %this1)
  ret ptr %call
}

; Function Attrs: mustprogress nounwind uwtable
define linkonce_odr noundef zeroext i1 @_ZNK5folly8OptionalIjEcvbEv(ptr noundef nonnull align 4 dereferenceable(8) %this) #5 comdat align 2 {
entry:
  %this.addr = alloca ptr, align 8
  store ptr %this, ptr %this.addr, align 8
  %this1 = load ptr, ptr %this.addr, align 8
  %call = call noundef zeroext i1 @_ZNK5folly8OptionalIjE9has_valueEv(ptr noundef nonnull align 4 dereferenceable(8) %this1) #3
  ret i1 %call
}

; Function Attrs: mustprogress uwtable
define linkonce_odr void @_ZN5folly5RangeIPKcEC2INS_14basic_fbstringIcSt11char_traitsIcESaIcENS_13fbstring_coreIcEEEEvS2_EERKT_(ptr noundef nonnull align 8 dereferenceable(16) %this, ptr noundef nonnull align 8 dereferenceable(24) %container) unnamed_addr #4 comdat align 2 {
entry:
  %this.addr = alloca ptr, align 8
  %container.addr = alloca ptr, align 8
  store ptr %this, ptr %this.addr, align 8
  store ptr %container, ptr %container.addr, align 8
  %this1 = load ptr, ptr %this.addr, align 8
  %0 = load ptr, ptr %container.addr, align 8
  %call = call noundef ptr @_ZNK5folly14basic_fbstringIcSt11char_traitsIcESaIcENS_13fbstring_coreIcEEE4dataEv(ptr noundef nonnull align 8 dereferenceable(24) %0)
  %1 = load ptr, ptr %container.addr, align 8
  %call2 = call noundef i64 @_ZNK5folly14basic_fbstringIcSt11char_traitsIcESaIcENS_13fbstring_coreIcEEE4sizeEv(ptr noundef nonnull align 8 dereferenceable(24) %1)
  call void @_ZN5folly5RangeIPKcEC2ES2_m(ptr noundef nonnull align 8 dereferenceable(16) %this1, ptr noundef %call, i64 noundef %call2)
  ret void
}

; Function Attrs: mustprogress uwtable
define void @_ZN8proxygen12HPACKEncoder12encodeHeaderEONS_15HPACKHeaderNameEON5folly14basic_fbstringIcSt11char_traitsIcESaIcENS3_13fbstring_coreIcEEEE(ptr noundef nonnull align 8 dereferenceable(236) %this, ptr noundef nonnull align 8 dereferenceable(8) %name, ptr noundef nonnull align 8 dereferenceable(24) %value) #4 align 2 {
entry:
  %this.addr = alloca ptr, align 8
  %name.addr = alloca ptr, align 8
  %value.addr = alloca ptr, align 8
  %indexable = alloca i8, align 1
  %nameIndex = alloca %"class.folly::Optional", align 4
  %agg.tmp = alloca %"class.folly::Range", align 8
  store ptr %this, ptr %this.addr, align 8
  store ptr %name, ptr %name.addr, align 8
  store ptr %value, ptr %value.addr, align 8
  %this1 = load ptr, ptr %this.addr, align 8
  store i8 0, ptr %indexable, align 1
  %0 = load ptr, ptr %name.addr, align 8
  %1 = load ptr, ptr %value.addr, align 8
  call void @_ZN5folly5RangeIPKcEC2INS_14basic_fbstringIcSt11char_traitsIcESaIcENS_13fbstring_coreIcEEEEvS2_EERKT_(ptr noundef nonnull align 8 dereferenceable(16) %agg.tmp, ptr noundef nonnull align 8 dereferenceable(24) %1)
  %2 = getelementptr inbounds { ptr, ptr }, ptr %agg.tmp, i32 0, i32 0
  %3 = load ptr, ptr %2, align 8
  %4 = getelementptr inbounds { ptr, ptr }, ptr %agg.tmp, i32 0, i32 1
  %5 = load ptr, ptr %4, align 8
  call void @_ZN8proxygen12HPACKEncoder16encodeHeaderImplERKNS_15HPACKHeaderNameEN5folly5RangeIPKcEERb(ptr sret(%"class.folly::Optional") align 4 %nameIndex, ptr noundef nonnull align 8 dereferenceable(236) %this1, ptr noundef nonnull align 8 dereferenceable(8) %0, ptr %3, ptr %5, ptr noundef nonnull align 1 dereferenceable(1) %indexable)
  %call = call noundef zeroext i1 @_ZNK5folly8OptionalIjEcvbEv(ptr noundef nonnull align 4 dereferenceable(8) %nameIndex) #3
  br i1 %call, label %if.then, label %if.end

if.then:                                          ; preds = %entry
  %6 = load ptr, ptr %name.addr, align 8
  %call2 = call noundef nonnull align 4 dereferenceable(4) ptr @_ZNR5folly8OptionalIjEdeEv(ptr noundef nonnull align 4 dereferenceable(8) %nameIndex)
  %7 = load i32, ptr %call2, align 4
  %8 = load ptr, ptr %value.addr, align 8
  %9 = load i8, ptr %indexable, align 1
  %tobool = trunc i8 %9 to i1
  %call3 = call noundef zeroext i1 @_ZN8proxygen12HPACKEncoder15encodeAsLiteralEONS_15HPACKHeaderNameEjON5folly14basic_fbstringIcSt11char_traitsIcESaIcENS3_13fbstring_coreIcEEEEb(ptr noundef nonnull align 8 dereferenceable(236) %this1, ptr noundef nonnull align 8 dereferenceable(8) %6, i32 noundef %7, ptr noundef nonnull align 8 dereferenceable(24) %8, i1 noundef zeroext %tobool)
  br label %if.end

if.end:                                           ; preds = %if.then, %entry
  ret void
}