; Function Attrs: mustprogress uwtable
define void @_ZN8proxygen12HPACKEncoder12encodeHeaderEONS_15HPACKHeaderNameEON5folly14basic_fbstringIcSt11char_traitsIcESaIcENS3_13fbstring_coreIcEEEE(ptr noundef nonnull align 8 dereferenceable(236) %this, ptr noundef nonnull align 8 dereferenceable(8) %name, ptr noundef nonnull align 8 dereferenceable(24) %value) local_unnamed_addr #3 align 2 {
entry:
  %indexable = alloca i8, align 1
  %nameIndex = alloca %"class.folly::Optional", align 4
  store i8 0, ptr %indexable, align 1
  %0 = load ptr, ptr %value, align 8
  %arrayidx.i.i.i.i.i = getelementptr inbounds i8, ptr %value, i64 23
  %1 = load i8, ptr %arrayidx.i.i.i.i.i, align 1
  %cmp.i.i.i.i = icmp ult i8 %1, 64
  %cond.i.i.i.i = select i1 %cmp.i.i.i.i, ptr %value, ptr %0
  %size_.i.i.i = getelementptr inbounds i8, ptr %value, i64 8
  %2 = load i64, ptr %size_.i.i.i, align 8
  %conv.i.i.i = zext i8 %1 to i64
  %sub.i.i.i = sub nsw i64 23, %conv.i.i.i
  %cmp.i.i.i = icmp ult i8 %1, 24
  %cond.i.i.i = select i1 %cmp.i.i.i, i64 %sub.i.i.i, i64 %2
  %add.ptr.i.i = getelementptr inbounds i8, ptr %cond.i.i.i.i, i64 %cond.i.i.i
  call void @_ZN8proxygen12HPACKEncoder16encodeHeaderImplERKNS_15HPACKHeaderNameEN5folly5RangeIPKcEERb(ptr nonnull sret(%"class.folly::Optional") align 4 %nameIndex, ptr noundef nonnull align 8 dereferenceable(236) %this, ptr noundef nonnull align 8 dereferenceable(8) %name, ptr %cond.i.i.i.i, ptr %add.ptr.i.i, ptr noundef nonnull align 1 dereferenceable(1) %indexable)
  %hasValue.i.i = getelementptr inbounds i8, ptr %nameIndex, i64 4
  %3 = load i8, ptr %hasValue.i.i, align 4
  %4 = and i8 %3, 1
  %tobool.i.i.not = icmp eq i8 %4, 0
  br i1 %tobool.i.i.not, label %if.end, label %_ZNR5folly8OptionalIjEdeEv.exit

_ZNR5folly8OptionalIjEdeEv.exit:                  ; preds = %entry
  %5 = load i32, ptr %nameIndex, align 4
  %6 = load i8, ptr %indexable, align 1
  %7 = and i8 %6, 1
  %tobool = icmp ne i8 %7, 0
  %call3 = tail call noundef zeroext i1 @_ZN8proxygen12HPACKEncoder15encodeAsLiteralEONS_15HPACKHeaderNameEjON5folly14basic_fbstringIcSt11char_traitsIcESaIcENS3_13fbstring_coreIcEEEEb(ptr noundef nonnull align 8 dereferenceable(236) %this, ptr noundef nonnull align 8 dereferenceable(8) %name, i32 noundef %5, ptr noundef nonnull align 8 dereferenceable(24) %value, i1 noundef zeroext %tobool)
  br label %if.end

if.end:                                           ; preds = %_ZNR5folly8OptionalIjEdeEv.exit, %entry
  ret void
}